Certificate:
    Data:
        Version: 3 (0x2)
        Serial Number:
            33:5d:19:89:41:08:b6:68:52:06:69:c9:aa:6a:42:34:9c:48:40:23
        Signature Algorithm: sha256WithRSAEncryption
        Issuer: C = IE, ST = Cavan, L = Cavan, O = NQM, OU = NQM, CN = edgesec
        Validity
            Not Before: Dec 22 16:18:30 2022 GMT
            Not After : Oct 11 16:18:30 2025 GMT
        Subject: C = IE, ST = Cavan, L = Cavan, O = NQM, OU = NQM, CN = edgesec
        Subject Public Key Info:
            Public Key Algorithm: rsaEncryption
                Public-Key: (4096 bit)
                Modulus:
                    00:c9:3a:8b:5e:0f:4f:f3:e2:ef:85:80:66:a1:90:
                    d8:a2:64:06:fe:e1:c1:bb:94:76:35:2d:43:a2:a0:
                    82:94:6f:86:a1:8b:34:b3:86:f7:18:64:9a:0a:52:
                    3f:08:05:bd:34:71:f4:8f:8b:80:24:de:cc:6c:f0:
                    db:60:ee:61:4a:b7:f9:08:0a:98:a6:2a:dc:5c:e2:
                    dd:96:eb:1e:a5:ac:b3:e8:93:8c:86:f0:5d:ce:bc:
                    8a:6e:df:9c:0b:a0:fa:07:70:38:b9:8a:b1:ea:7b:
                    6c:fd:90:ab:6e:35:69:26:e2:12:4e:d5:7b:a1:93:
                    22:16:e6:1e:79:ba:41:5a:92:18:be:b1:37:19:c3:
                    f5:54:ed:75:d2:6f:7a:b6:d9:79:fc:14:18:72:64:
                    3e:d1:2c:28:85:0c:93:3a:b4:39:a5:06:b5:bb:fd:
                    b5:e0:a5:2f:d6:58:6f:22:38:d5:74:87:18:77:40:
                    83:2a:66:2f:b0:3d:8c:de:78:eb:0c:66:8c:0f:b6:
                    03:d6:69:69:9c:5e:70:ae:50:27:90:dd:14:4b:3c:
                    5c:13:70:77:4f:a7:d1:8d:3e:80:86:a4:44:1a:1d:
                    bb:e6:a5:6b:3c:ce:e7:36:7e:84:6e:6c:3a:57:de:
                    7e:37:f3:e5:57:71:7c:69:7c:e9:aa:ee:8c:66:dd:
                    00:3c:54:ee:5c:fe:6d:4f:9b:1e:31:bf:ec:d4:c2:
                    8f:ca:f9:d3:42:e4:8c:c0:ef:12:f8:b4:77:9f:3f:
                    87:99:92:3c:fe:3b:4c:22:cb:dc:74:5c:df:39:d7:
                    08:5b:94:c5:8a:45:c4:b6:7d:6c:94:07:01:03:a9:
                    e2:ad:cb:0c:e9:24:e2:58:cc:63:6b:0e:ee:5d:0d:
                    63:85:b6:80:c0:b5:15:dc:0a:6e:06:3d:bb:f3:0f:
                    e3:32:43:7e:be:cc:7a:54:eb:40:0c:2d:d6:bf:e0:
                    6b:3b:66:ac:de:6e:92:fb:99:3a:f6:38:11:10:2e:
                    74:6c:a0:f8:f5:44:4a:7c:43:cf:99:13:3a:91:50:
                    c0:c6:b9:83:2e:4e:ea:d6:8e:16:04:99:8e:71:0a:
                    b9:de:37:68:a9:79:b6:e5:c4:de:e6:29:94:61:a7:
                    b9:8c:9e:32:1b:98:a6:90:ad:4d:6f:1f:0f:64:60:
                    18:36:72:db:08:8c:30:6d:a7:9f:a4:60:4c:d8:e9:
                    c0:97:b5:49:57:07:1c:e7:d3:d2:5e:6b:49:b4:59:
                    b7:85:53:8a:7d:f0:e6:06:a9:b8:8b:6d:82:b7:ea:
                    5f:69:31:ae:dd:61:f1:43:32:f1:b0:82:9e:5b:f0:
                    df:f2:01:bd:3f:04:37:24:9e:30:71:5b:40:9c:25:
                    e1:33:3d
                Exponent: 65537 (0x10001)
        X509v3 extensions:
            X509v3 Subject Key Identifier: 
                B4:92:A2:31:0D:87:65:AC:53:ED:3E:83:73:1E:F8:7F:25:2A:C2:29
            X509v3 Authority Key Identifier: 
                B4:92:A2:31:0D:87:65:AC:53:ED:3E:83:73:1E:F8:7F:25:2A:C2:29
            X509v3 Basic Constraints: critical
                CA:TRUE
    Signature Algorithm: sha256WithRSAEncryption
    Signature Value:
        70:e5:09:e9:24:45:da:a9:27:9b:98:22:98:22:57:fb:21:47:
        2f:85:92:69:8d:d5:2c:42:70:3d:d5:ac:ab:9d:c4:19:cf:07:
        e8:db:6f:ae:9d:59:9e:b7:33:9b:49:93:09:1c:4b:50:0f:aa:
        0d:57:91:f1:bf:dd:11:47:dc:a9:a1:94:4b:8d:00:66:51:e8:
        4b:07:3a:69:02:74:45:2d:b9:4b:ed:e2:60:8d:06:66:3d:66:
        dc:12:52:fd:8b:02:3b:fa:24:fb:db:d0:5b:da:fa:b5:85:69:
        c4:0c:86:c1:d4:e6:63:51:c9:e5:81:15:b2:a9:58:99:a3:a0:
        e2:b1:a1:da:b1:a7:0a:5c:42:c4:5d:0e:6c:75:9b:b0:f5:3e:
        a0:4b:0c:1d:0d:69:10:ba:96:23:f6:00:26:9f:38:fc:c4:ec:
        e2:2a:d0:95:26:1c:f1:27:24:74:0a:47:77:10:4e:a3:93:9f:
        df:1a:67:57:eb:c4:a5:93:70:6a:48:7d:a7:da:e5:44:28:33:
        f7:8b:49:d0:e7:ef:42:0f:11:95:5a:fd:d6:66:b3:7b:9f:2f:
        84:09:ff:aa:fd:cd:9a:d5:72:9a:7b:cc:9a:38:fa:71:ec:79:
        87:31:9e:a3:d8:3d:69:63:54:2e:47:28:85:2c:e8:08:0e:f7:
        7d:35:7f:ef:71:3e:b1:0d:e7:ea:d2:5a:20:5c:fd:02:a4:d9:
        8d:41:8e:d1:25:f1:f8:8c:5a:0b:ae:4a:79:a7:4f:7d:4e:ed:
        27:da:a1:ba:c9:37:60:3a:9b:82:93:87:ec:96:d7:c8:ee:cf:
        bf:cd:fc:69:5b:03:23:c0:ae:4b:84:a9:6a:3c:5c:c4:17:63:
        48:e5:26:66:8e:16:6d:0e:f3:d0:83:d6:ee:3c:f6:7c:50:70:
        29:08:23:e2:1c:82:b5:e4:05:0f:03:89:1d:2b:5e:d4:f6:32:
        6b:79:ea:dd:1e:a7:dc:f0:3b:61:23:f6:ef:cd:63:3a:44:30:
        45:67:87:cc:da:fc:56:06:83:c2:5d:8f:1b:ff:da:8c:aa:90:
        4b:fe:cf:dd:f1:56:27:c3:8d:5e:0b:60:bc:56:62:0c:10:97:
        71:65:86:b5:0e:3b:a5:9d:59:d1:d9:63:8c:cb:83:6a:87:19:
        c8:f3:27:aa:de:1a:72:df:3b:a4:b1:f0:0d:be:7e:a7:e7:82:
        be:f8:33:01:18:4b:d2:88:35:4e:5b:8d:f0:57:78:8d:3e:7d:
        32:b7:ad:3f:44:30:42:e5:80:75:68:97:08:59:b3:0e:a1:8f:
        f2:18:18:ac:a1:4c:a1:3f:1a:d5:e8:62:16:14:12:a2:d7:9a:
        f5:17:f7:52:20:40:f8:fa
-----BEGIN CERTIFICATE-----
MIIFlzCCA3+gAwIBAgIUM10ZiUEItmhSBmnJqmpCNJxIQCMwDQYJKoZIhvcNAQEL
BQAwWzELMAkGA1UEBhMCSUUxDjAMBgNVBAgMBUNhdmFuMQ4wDAYDVQQHDAVDYXZh
bjEMMAoGA1UECgwDTlFNMQwwCgYDVQQLDANOUU0xEDAOBgNVBAMMB2VkZ2VzZWMw
HhcNMjIxMjIyMTYxODMwWhcNMjUxMDExMTYxODMwWjBbMQswCQYDVQQGEwJJRTEO
MAwGA1UECAwFQ2F2YW4xDjAMBgNVBAcMBUNhdmFuMQwwCgYDVQQKDANOUU0xDDAK
BgNVBAsMA05RTTEQMA4GA1UEAwwHZWRnZXNlYzCCAiIwDQYJKoZIhvcNAQEBBQAD
ggIPADCCAgoCggIBAMk6i14PT/Pi74WAZqGQ2KJkBv7hwbuUdjUtQ6KggpRvhqGL
NLOG9xhkmgpSPwgFvTRx9I+LgCTezGzw22DuYUq3+QgKmKYq3Fzi3ZbrHqWss+iT
jIbwXc68im7fnAug+gdwOLmKsep7bP2Qq241aSbiEk7Ve6GTIhbmHnm6QVqSGL6x
NxnD9VTtddJverbZefwUGHJkPtEsKIUMkzq0OaUGtbv9teClL9ZYbyI41XSHGHdA
gypmL7A9jN546wxmjA+2A9ZpaZxecK5QJ5DdFEs8XBNwd0+n0Y0+gIakRBodu+al
azzO5zZ+hG5sOlfefjfz5VdxfGl86arujGbdADxU7lz+bU+bHjG/7NTCj8r500Lk
jMDvEvi0d58/h5mSPP47TCLL3HRc3znXCFuUxYpFxLZ9bJQHAQOp4q3LDOkk4ljM
Y2sO7l0NY4W2gMC1FdwKbgY9u/MP4zJDfr7MelTrQAwt1r/gaztmrN5ukvuZOvY4
ERAudGyg+PVESnxDz5kTOpFQwMa5gy5O6taOFgSZjnEKud43aKl5tuXE3uYplGGn
uYyeMhuYppCtTW8fD2RgGDZy2wiMMG2nn6RgTNjpwJe1SVcHHOfT0l5rSbRZt4VT
in3w5gapuIttgrfqX2kxrt1h8UMy8bCCnlvw3/IBvT8ENySeMHFbQJwl4TM9AgMB
AAGjUzBRMB0GA1UdDgQWBBS0kqIxDYdlrFPtPoNzHvh/JSrCKTAfBgNVHSMEGDAW
gBS0kqIxDYdlrFPtPoNzHvh/JSrCKTAPBgNVHRMBAf8EBTADAQH/MA0GCSqGSIb3
DQEBCwUAA4ICAQBw5QnpJEXaqSebmCKYIlf7IUcvhZJpjdUsQnA91ayrncQZzwfo
22+unVmetzObSZMJHEtQD6oNV5Hxv90RR9ypoZRLjQBmUehLBzppAnRFLblL7eJg
jQZmPWbcElL9iwI7+iT729Bb2vq1hWnEDIbB1OZjUcnlgRWyqViZo6DisaHasacK
XELEXQ5sdZuw9T6gSwwdDWkQupYj9gAmnzj8xOziKtCVJhzxJyR0Ckd3EE6jk5/f
GmdX68Slk3BqSH2n2uVEKDP3i0nQ5+9CDxGVWv3WZrN7ny+ECf+q/c2a1XKae8ya
OPpx7HmHMZ6j2D1pY1QuRyiFLOgIDvd9NX/vcT6xDefq0logXP0CpNmNQY7RJfH4
jFoLrkp5p099Tu0n2qG6yTdgOpuCk4fsltfI7s+/zfxpWwMjwK5LhKlqPFzEF2NI
5SZmjhZtDvPQg9buPPZ8UHApCCPiHIK15AUPA4kdK17U9jJreerdHqfc8DthI/bv
zWM6RDBFZ4fM2vxWBoPCXY8b/9qMqpBL/s/d8VYnw41eC2C8VmIMEJdxZYa1Djul
nVnR2WOMy4NqhxnI8yeq3hpy3zuksfANvn6n54K++DMBGEvSiDVOW43wV3iNPn0y
t60/RDBC5YB1aJcIWbMOoY/yGBisoUyhPxrV6GIWFBKi15r1F/dSIED4+g==
-----END CERTIFICATE-----
