Certificate:
    Data:
        Version: 1 (0x0)
        Serial Number:
            2a:fe:6b:8a:db:ac:81:45:80:36:05:f5:3b:43:f8:26:8d:99:96:d1
        Signature Algorithm: sha256WithRSAEncryption
        Issuer: C = IE, ST = Cavan, L = Cavan, O = NQM, OU = NQM, CN = edgesec
        Validity
            Not Before: Jan  4 13:34:28 2023 GMT
            Not After : May 18 13:34:28 2024 GMT
        Subject: C = IE, ST = Cavan, L = Cavan, O = NQM, OU = NQM, CN = localhost
        Subject Public Key Info:
            Public Key Algorithm: rsaEncryption
                Public-Key: (2048 bit)
                Modulus:
                    00:b8:b0:88:4d:26:15:77:06:15:73:7d:8f:16:c5:
                    4f:8f:65:48:56:89:54:8f:f1:f6:f3:ac:68:ac:82:
                    1b:72:0f:29:69:3b:c0:9d:07:76:b2:20:bf:3d:2d:
                    44:38:73:8a:f8:34:e2:2f:1a:dd:80:5b:e6:04:25:
                    af:b4:f3:a3:a4:60:f2:4c:17:b2:99:34:5e:23:3f:
                    a5:8e:3e:b5:ce:0a:7a:9b:94:bf:32:9a:29:79:98:
                    7c:3b:e1:6e:d0:80:84:d1:4f:28:61:54:7a:98:a2:
                    fa:37:5e:74:2c:c8:1c:58:f1:79:e3:44:fb:1a:33:
                    89:00:03:e8:5a:52:b0:d5:57:cd:10:e9:b7:71:6c:
                    e9:42:74:95:26:2c:15:8f:c7:72:28:e2:2f:67:14:
                    ae:aa:df:fd:55:e6:60:09:26:fc:af:72:5f:c4:af:
                    eb:68:74:52:5f:1c:b3:eb:96:ed:23:56:3a:ee:bf:
                    98:39:76:5b:06:2c:99:18:a7:2a:55:b0:3e:7c:f1:
                    ee:f2:70:97:0c:66:ac:22:46:68:6e:d1:a4:99:c5:
                    44:d6:1d:91:d6:4f:98:ad:b8:b0:de:18:0d:e7:17:
                    26:2e:22:f4:05:c9:93:ce:ef:8b:f6:39:65:1f:9c:
                    99:a4:b9:f6:8d:bf:a7:5d:12:26:ca:1c:bf:fd:bf:
                    e8:95
                Exponent: 65537 (0x10001)
    Signature Algorithm: sha256WithRSAEncryption
    Signature Value:
        b0:86:e3:b8:23:35:f2:82:53:34:6a:f7:88:6b:08:1a:d1:1a:
        30:a2:5a:5e:79:19:06:ee:bb:d2:33:ea:02:8f:e1:c8:d1:74:
        86:60:8a:89:75:ee:fb:ce:9b:86:04:dc:50:2a:99:0c:1c:ae:
        a6:21:70:6c:bf:96:b7:ec:95:a6:3c:1a:39:f2:c7:3c:fc:b6:
        3e:41:6f:eb:d1:28:e8:74:52:23:b2:32:d5:b5:91:f6:50:cd:
        3b:a2:e7:e3:62:9b:b1:02:5b:fc:fc:d9:f9:ad:cb:88:b9:2a:
        f6:b3:14:ec:96:2a:3e:e6:13:79:bc:0e:4c:94:a9:75:5f:ca:
        8f:ee:79:a9:c0:f3:31:58:96:1a:00:6f:2c:75:72:77:f1:be:
        45:1c:46:f4:8e:59:bf:68:bb:dc:40:f5:9d:b5:4e:12:e9:a9:
        ec:70:c7:72:b0:8c:15:00:ba:a0:b8:4c:b9:8e:20:90:10:03:
        30:c6:aa:aa:ec:84:59:93:de:63:77:93:9a:d7:3b:9d:64:53:
        7d:2b:a2:5a:8c:44:2b:42:91:1e:13:a6:46:5d:35:54:e2:68:
        13:a6:a2:3d:c5:70:56:1b:33:2e:0d:68:e4:10:97:f2:9b:6f:
        19:bd:f2:b1:e3:dd:1b:c0:cb:b1:04:7b:a6:6c:e1:27:13:e5:
        46:47:b6:b5:b4:58:b1:82:0b:1a:50:34:07:9b:a3:8c:95:c5:
        c7:5f:2f:b1:e6:20:cb:54:d8:6e:5d:95:78:d0:ea:73:a0:6f:
        3b:7c:e8:f3:98:69:00:79:b4:82:cf:64:4c:ba:f1:63:c2:4a:
        d1:11:74:56:10:ac:4d:ca:6b:00:9b:d0:03:35:80:e5:59:95:
        d4:fd:28:6e:c9:b3:7d:e7:59:7e:f3:2a:36:2a:67:f9:0c:cb:
        8e:8c:e5:bd:f9:ca:43:7a:2a:de:89:a5:ea:0b:f7:b6:3f:83:
        2e:62:70:91:88:09:46:d4:f3:e5:0d:af:df:82:d0:9d:0d:b1:
        a2:94:73:d1:de:dd:0a:70:cc:59:61:74:da:33:a8:48:32:a1:
        10:b0:cc:03:65:bb:22:13:3b:29:9e:89:4c:7b:b1:20:0a:56:
        3b:7f:cc:11:53:a4:c9:f7:ae:87:8c:b6:8f:2a:8a:30:77:07:
        b3:16:43:7e:a2:b7:ac:d9:5b:a0:d9:6d:05:c6:7d:8a:cb:8b:
        74:85:2f:19:d2:82:56:79:5d:0f:b4:b7:7b:30:3a:39:93:19:
        ef:54:17:16:f5:83:84:f3:3c:2a:a5:b7:c6:27:5f:6a:97:37:
        6e:43:a1:92:58:a2:de:c3:45:93:a0:9f:fb:96:82:d1:67:7b:
        c1:9e:ea:de:ca:c2:4e:ae
-----BEGIN CERTIFICATE-----
MIIEPzCCAicCFCr+a4rbrIFFgDYF9TtD+CaNmZbRMA0GCSqGSIb3DQEBCwUAMFsx
CzAJBgNVBAYTAklFMQ4wDAYDVQQIDAVDYXZhbjEOMAwGA1UEBwwFQ2F2YW4xDDAK
BgNVBAoMA05RTTEMMAoGA1UECwwDTlFNMRAwDgYDVQQDDAdlZGdlc2VjMB4XDTIz
MDEwNDEzMzQyOFoXDTI0MDUxODEzMzQyOFowXTELMAkGA1UEBhMCSUUxDjAMBgNV
BAgMBUNhdmFuMQ4wDAYDVQQHDAVDYXZhbjEMMAoGA1UECgwDTlFNMQwwCgYDVQQL
DANOUU0xEjAQBgNVBAMMCWxvY2FsaG9zdDCCASIwDQYJKoZIhvcNAQEBBQADggEP
ADCCAQoCggEBALiwiE0mFXcGFXN9jxbFT49lSFaJVI/x9vOsaKyCG3IPKWk7wJ0H
drIgvz0tRDhzivg04i8a3YBb5gQlr7Tzo6Rg8kwXspk0XiM/pY4+tc4KepuUvzKa
KXmYfDvhbtCAhNFPKGFUepii+jdedCzIHFjxeeNE+xoziQAD6FpSsNVXzRDpt3Fs
6UJ0lSYsFY/HcijiL2cUrqrf/VXmYAkm/K9yX8Sv62h0Ul8cs+uW7SNWOu6/mDl2
WwYsmRinKlWwPnzx7vJwlwxmrCJGaG7RpJnFRNYdkdZPmK24sN4YDecXJi4i9AXJ
k87vi/Y5ZR+cmaS59o2/p10SJsocv/2/6JUCAwEAATANBgkqhkiG9w0BAQsFAAOC
AgEAsIbjuCM18oJTNGr3iGsIGtEaMKJaXnkZBu670jPqAo/hyNF0hmCKiXXu+86b
hgTcUCqZDByupiFwbL+Wt+yVpjwaOfLHPPy2PkFv69Eo6HRSI7Iy1bWR9lDNO6Ln
42KbsQJb/PzZ+a3LiLkq9rMU7JYqPuYTebwOTJSpdV/Kj+55qcDzMViWGgBvLHVy
d/G+RRxG9I5Zv2i73ED1nbVOEump7HDHcrCMFQC6oLhMuY4gkBADMMaqquyEWZPe
Y3eTmtc7nWRTfSuiWoxEK0KRHhOmRl01VOJoE6aiPcVwVhszLg1o5BCX8ptvGb3y
sePdG8DLsQR7pmzhJxPlRke2tbRYsYILGlA0B5ujjJXFx18vseYgy1TYbl2VeNDq
c6BvO3zo85hpAHm0gs9kTLrxY8JK0RF0VhCsTcprAJvQAzWA5VmV1P0obsmzfedZ
fvMqNipn+QzLjozlvfnKQ3oq3oml6gv3tj+DLmJwkYgJRtTz5Q2v34LQnQ2xopRz
0d7dCnDMWWF02jOoSDKhELDMA2W7IhM7KZ6JTHuxIApWO3/MEVOkyfeuh4y2jyqK
MHcHsxZDfqK3rNlboNltBcZ9isuLdIUvGdKCVnldD7S3ezA6OZMZ71QXFvWDhPM8
KqW3xidfapc3bkOhklii3sNFk6Cf+5aC0Wd7wZ7q3srCTq4=
-----END CERTIFICATE-----
