Certificate:
    Data:
        Version: 1 (0x0)
        Serial Number:
            4f:dd:9e:fd:61:18:4a:b2:13:bd:1f:b6:0f:ab:68:8e:f3:41:53:dd
        Signature Algorithm: sha256WithRSAEncryption
        Issuer: C = IE, ST = Cavan, L = Cavan, O = NQM, OU = NQM, CN = edgesec
        Validity
            Not Before: Dec 22 16:22:03 2022 GMT
            Not After : May  5 16:22:03 2024 GMT
        Subject: C = US, ST = CA, O = "NQM, Inc.", CN = edgesec.info
        Subject Public Key Info:
            Public Key Algorithm: rsaEncryption
                Public-Key: (2048 bit)
                Modulus:
                    00:b4:c4:7c:a9:7a:91:a0:f2:f4:45:fc:64:10:82:
                    98:2c:c3:a6:5a:21:46:7c:b5:33:18:9b:00:03:ef:
                    24:5e:c7:c7:0d:4e:d6:1a:6f:55:62:e3:db:4c:aa:
                    a5:fc:85:bb:1f:69:2e:bf:fe:99:60:1b:b9:28:71:
                    5d:b4:85:df:2b:99:7c:c0:5c:ae:d0:b8:8b:15:c1:
                    d0:d0:bd:ca:1f:01:1f:15:67:0f:a6:6e:64:a9:b3:
                    8e:bf:0f:54:05:a3:a9:f8:34:4f:d8:b4:e7:64:b0:
                    cf:c0:8f:7f:09:5f:12:32:2d:08:d2:59:6d:06:69:
                    f6:15:16:22:65:48:9c:6a:73:d9:ae:86:dc:50:da:
                    50:7b:d3:81:b4:b1:01:23:13:1e:11:27:d9:30:56:
                    a2:40:71:4b:6a:b2:94:0d:77:e1:b5:74:4f:d5:b7:
                    68:3f:9f:40:fa:fd:87:88:6d:20:e7:c8:e8:14:9b:
                    2c:0f:23:07:1d:c2:83:d4:ff:01:aa:37:39:63:2e:
                    f5:7d:a4:24:74:13:91:34:7e:8b:bc:32:78:be:3e:
                    66:40:8e:e0:85:f8:02:3c:1c:dd:cb:29:9b:68:8a:
                    c3:08:48:ff:86:d2:38:f7:34:6c:01:fd:3f:0b:28:
                    f4:df:cd:c9:1d:e2:ec:d1:e9:f8:5c:f2:5d:85:8b:
                    0e:a9
                Exponent: 65537 (0x10001)
    Signature Algorithm: sha256WithRSAEncryption
    Signature Value:
        36:07:c3:56:9c:5c:2f:21:61:7e:61:65:1f:24:0d:d7:88:d1:
        b8:01:6c:ad:f4:32:7b:cc:5b:11:38:5f:30:03:1f:a4:92:0a:
        1b:00:10:95:28:9a:62:b7:cb:5c:ee:81:f7:e8:d1:77:df:8b:
        86:b8:25:3a:f7:2d:7f:ae:b3:2e:cc:94:0d:91:e9:42:27:e4:
        f3:56:dd:ad:3e:40:58:03:ac:48:4d:d4:2c:4c:07:61:6d:7c:
        9f:f4:01:49:6a:c1:6f:1c:94:87:93:30:25:12:87:47:7c:b3:
        23:32:ac:76:b7:0c:06:67:e1:da:39:f4:0d:79:92:aa:33:fc:
        7d:b6:cf:ad:84:90:36:6d:b5:37:20:65:4a:4c:47:50:dc:ef:
        c7:e9:44:75:1a:57:3d:b1:42:5d:41:39:e1:c5:8a:26:3b:0b:
        12:79:1d:fb:a6:9e:e5:3b:76:a3:35:99:ce:66:6b:87:2d:81:
        dd:72:49:cb:49:8c:b7:9d:39:75:12:a8:3c:e1:b1:3a:de:b7:
        8a:65:1a:7d:bc:c6:a7:8a:4c:a2:07:23:a2:4b:49:ee:60:51:
        f8:39:29:23:43:b3:96:03:6d:46:ae:c0:f9:86:b1:bf:5b:28:
        1e:7e:ee:0e:b7:91:cb:a9:e7:49:a6:1f:f5:14:62:74:63:69:
        d0:31:0d:66:3f:53:0d:77:3b:8b:eb:31:18:96:a4:3b:b2:00:
        6c:22:54:71:82:cc:00:3b:24:ff:8d:dd:67:ab:eb:bb:a8:49:
        a7:d9:21:f0:b3:92:66:62:fd:b1:aa:aa:95:a7:0d:01:e6:50:
        ce:9d:d9:fc:77:10:82:de:cf:d8:12:50:78:ba:04:e3:30:2e:
        83:e9:9f:71:49:0e:02:f9:d0:cb:76:dd:c1:f2:e3:b7:60:96:
        b0:6e:3b:cc:92:93:24:4b:16:5d:91:18:93:08:76:5c:2b:2a:
        72:6b:f2:6a:91:1a:85:bd:e8:76:f8:e3:b4:84:3f:f7:db:58:
        13:a2:dd:bb:26:88:e0:76:ad:66:ad:ce:9d:73:f0:ea:e5:29:
        ca:8f:8f:2b:09:8d:11:34:90:c2:49:1a:9b:c3:96:c5:da:a7:
        93:5a:2f:1f:ad:c8:49:8d:7e:b2:3b:b5:24:8c:24:5c:a7:10:
        f7:ae:a6:df:17:ff:4b:e2:9e:60:9f:30:8a:b2:5a:6f:4c:bb:
        1a:e1:44:82:f9:4a:9a:e9:db:cb:95:35:01:de:89:bd:47:a2:
        cb:d9:e9:8f:e7:c2:db:51:ff:e8:7c:b5:5a:a4:9e:c5:07:29:
        8a:21:d0:57:8f:61:1d:80:1c:f9:76:88:f2:2c:8c:67:d3:af:
        c2:7a:a7:e6:a0:78:e1:8c
-----BEGIN CERTIFICATE-----
MIIEJzCCAg8CFE/dnv1hGEqyE70ftg+raI7zQVPdMA0GCSqGSIb3DQEBCwUAMFsx
CzAJBgNVBAYTAklFMQ4wDAYDVQQIDAVDYXZhbjEOMAwGA1UEBwwFQ2F2YW4xDDAK
BgNVBAoMA05RTTEMMAoGA1UECwwDTlFNMRAwDgYDVQQDDAdlZGdlc2VjMB4XDTIy
MTIyMjE2MjIwM1oXDTI0MDUwNTE2MjIwM1owRTELMAkGA1UEBhMCVVMxCzAJBgNV
BAgMAkNBMRIwEAYDVQQKDAlOUU0sIEluYy4xFTATBgNVBAMMDGVkZ2VzZWMuaW5m
bzCCASIwDQYJKoZIhvcNAQEBBQADggEPADCCAQoCggEBALTEfKl6kaDy9EX8ZBCC
mCzDplohRny1MxibAAPvJF7Hxw1O1hpvVWLj20yqpfyFux9pLr/+mWAbuShxXbSF
3yuZfMBcrtC4ixXB0NC9yh8BHxVnD6ZuZKmzjr8PVAWjqfg0T9i052Swz8CPfwlf
EjItCNJZbQZp9hUWImVInGpz2a6G3FDaUHvTgbSxASMTHhEn2TBWokBxS2qylA13
4bV0T9W3aD+fQPr9h4htIOfI6BSbLA8jBx3Cg9T/Aao3OWMu9X2kJHQTkTR+i7wy
eL4+ZkCO4IX4Ajwc3cspm2iKwwhI/4bSOPc0bAH9Pwso9N/NyR3i7NHp+FzyXYWL
DqkCAwEAATANBgkqhkiG9w0BAQsFAAOCAgEANgfDVpxcLyFhfmFlHyQN14jRuAFs
rfQye8xbEThfMAMfpJIKGwAQlSiaYrfLXO6B9+jRd9+LhrglOvctf66zLsyUDZHp
Qifk81bdrT5AWAOsSE3ULEwHYW18n/QBSWrBbxyUh5MwJRKHR3yzIzKsdrcMBmfh
2jn0DXmSqjP8fbbPrYSQNm21NyBlSkxHUNzvx+lEdRpXPbFCXUE54cWKJjsLEnkd
+6ae5Tt2ozWZzmZrhy2B3XJJy0mMt505dRKoPOGxOt63imUafbzGp4pMogcjoktJ
7mBR+DkpI0OzlgNtRq7A+Yaxv1soHn7uDreRy6nnSaYf9RRidGNp0DENZj9TDXc7
i+sxGJakO7IAbCJUcYLMADsk/43dZ6vru6hJp9kh8LOSZmL9saqqlacNAeZQzp3Z
/HcQgt7P2BJQeLoE4zAug+mfcUkOAvnQy3bdwfLjt2CWsG47zJKTJEsWXZEYkwh2
XCsqcmvyapEahb3odvjjtIQ/99tYE6LduyaI4HatZq3OnXPw6uUpyo+PKwmNETSQ
wkkam8OWxdqnk1ovH63ISY1+sju1JIwkXKcQ966m3xf/S+KeYJ8wirJab0y7GuFE
gvlKmunby5U1Ad6JvUeiy9npj+fC21H/6Hy1WqSexQcpiiHQV49hHYAc+XaI8iyM
Z9Ovwnqn5qB44Yw=
-----END CERTIFICATE-----
